target datalayout = "e-m:e-p270:32:32-p271:32:32-p272:64:64-i64:64-i128:128-f80:128-n8:16:32:64-S128"
target triple = "x86_64-pc-linux-gnu"

%struct.SDL_joylist_item = type { i32, ptr, ptr, %struct.SDL_GUID, i64, i32, ptr, ptr, i8, ptr }
%struct.SDL_GUID = type { [16 x i8] }
%struct.SDL_sensorlist_item = type { ptr, i64, ptr, ptr }

@enumeration_method = internal global i32 0, align 4
@inotify_fd = internal global i32 -1, align 4
@SDL_joylist = internal global ptr null, align 8
@SDL_sensorlist = internal global ptr null, align 8
@SDL_joylist_tail = internal global ptr null, align 8
@numjoysticks = internal global i32 0, align 4

; Function Attrs: nounwind uwtable
define internal void @FreeSensorlistItem(ptr noundef %0) #0 {
  %2 = alloca ptr, align 8
  store ptr %0, ptr %2, align 8
  %3 = load ptr, ptr %2, align 8
  %4 = getelementptr inbounds nuw %struct.SDL_sensorlist_item, ptr %3, i32 0, i32 0
  %5 = load ptr, ptr %4, align 8
  call void @SDL_free_REAL(ptr noundef %5)
  %6 = load ptr, ptr %2, align 8
  call void @SDL_free_REAL(ptr noundef %6)
  ret void
}

; Function Attrs: nounwind uwtable
define internal void @FreeJoylistItem(ptr noundef %0) #0 {
  %2 = alloca ptr, align 8
  store ptr %0, ptr %2, align 8
  %3 = load ptr, ptr %2, align 8
  %4 = getelementptr inbounds nuw %struct.SDL_joylist_item, ptr %3, i32 0, i32 9
  %5 = load ptr, ptr %4, align 8
  call void @SDL_free_REAL(ptr noundef %5)
  %6 = load ptr, ptr %2, align 8
  %7 = getelementptr inbounds nuw %struct.SDL_joylist_item, ptr %6, i32 0, i32 1
  %8 = load ptr, ptr %7, align 8
  call void @SDL_free_REAL(ptr noundef %8)
  %9 = load ptr, ptr %2, align 8
  %10 = getelementptr inbounds nuw %struct.SDL_joylist_item, ptr %9, i32 0, i32 2
  %11 = load ptr, ptr %10, align 8
  call void @SDL_free_REAL(ptr noundef %11)
  %12 = load ptr, ptr %2, align 8
  call void @SDL_free_REAL(ptr noundef %12)
  ret void
}

; Function Attrs: nounwind uwtable
define internal void @LINUX_JoystickQuit() #0 {
  %1 = alloca ptr, align 8
  %2 = alloca ptr, align 8
  %3 = alloca ptr, align 8
  %4 = alloca ptr, align 8
  call void @llvm.lifetime.start.p0(i64 8, ptr %1) #11
  store ptr null, ptr %1, align 8
  call void @llvm.lifetime.start.p0(i64 8, ptr %2) #11
  store ptr null, ptr %2, align 8
  call void @llvm.lifetime.start.p0(i64 8, ptr %3) #11
  store ptr null, ptr %3, align 8
  call void @llvm.lifetime.start.p0(i64 8, ptr %4) #11
  store ptr null, ptr %4, align 8
  call void @SDL_AssertJoysticksLocked()
  %5 = load i32, ptr @inotify_fd, align 4
  %6 = icmp sge i32 %5, 0
  br i1 %6, label %7, label %10

7:                                                ; preds = %0
  %8 = load i32, ptr @inotify_fd, align 4
  %9 = call i32 @close(i32 noundef %8)
  store i32 -1, ptr @inotify_fd, align 4
  br label %10

10:                                               ; preds = %7, %0
  %11 = load ptr, ptr @SDL_joylist, align 8
  store ptr %11, ptr %1, align 8
  br label %12

12:                                               ; preds = %20, %10
  %13 = load ptr, ptr %1, align 8
  %14 = icmp ne ptr %13, null
  br i1 %14, label %15, label %22

15:                                               ; preds = %12
  %16 = load ptr, ptr %1, align 8
  %17 = getelementptr inbounds nuw %struct.SDL_joylist_item, ptr %16, i32 0, i32 7
  %18 = load ptr, ptr %17, align 8
  store ptr %18, ptr %2, align 8
  %19 = load ptr, ptr %1, align 8
  call void @FreeJoylistItem(ptr noundef %19)
  br label %20

20:                                               ; preds = %15
  %21 = load ptr, ptr %2, align 8
  store ptr %21, ptr %1, align 8
  br label %12, !llvm.loop !8

22:                                               ; preds = %12
  %23 = load ptr, ptr @SDL_sensorlist, align 8
  store ptr %23, ptr %3, align 8
  br label %24

24:                                               ; preds = %32, %22
  %25 = load ptr, ptr %3, align 8
  %26 = icmp ne ptr %25, null
  br i1 %26, label %27, label %34

27:                                               ; preds = %24
  %28 = load ptr, ptr %3, align 8
  %29 = getelementptr inbounds nuw %struct.SDL_sensorlist_item, ptr %28, i32 0, i32 3
  %30 = load ptr, ptr %29, align 8
  store ptr %30, ptr %4, align 8
  %31 = load ptr, ptr %3, align 8
  call void @FreeSensorlistItem(ptr noundef %31)
  br label %32

32:                                               ; preds = %27
  %33 = load ptr, ptr %4, align 8
  store ptr %33, ptr %3, align 8
  br label %24, !llvm.loop !9

34:                                               ; preds = %24
  store ptr null, ptr @SDL_joylist_tail, align 8
  store ptr null, ptr @SDL_joylist, align 8
  store ptr null, ptr @SDL_sensorlist, align 8
  store i32 0, ptr @numjoysticks, align 4
  %35 = load i32, ptr @enumeration_method, align 4
  %36 = icmp eq i32 %35, 1
  br i1 %36, label %37, label %38

37:                                               ; preds = %34
  call void @SDL_UDEV_DelCallback(ptr noundef @joystick_udev_callback)
  call void @SDL_UDEV_Quit()
  br label %38

38:                                               ; preds = %37, %34
  call void @llvm.lifetime.end.p0(i64 8, ptr %4) #11
  call void @llvm.lifetime.end.p0(i64 8, ptr %3) #11
  call void @llvm.lifetime.end.p0(i64 8, ptr %2) #11
  call void @llvm.lifetime.end.p0(i64 8, ptr %1) #11
  ret void
}