; Function Attrs: nounwind uwtable
define internal void @LINUX_JoystickQuit() #0 {
  tail call void @SDL_AssertJoysticksLocked() #18
  %1 = load i32, ptr @inotify_fd, align 4
  %2 = icmp sgt i32 %1, -1
  br i1 %2, label %3, label %5

3:                                                ; preds = %0
  %4 = tail call i32 @close(i32 noundef %1) #18
  store i32 -1, ptr @inotify_fd, align 4
  br label %5

5:                                                ; preds = %3, %0
  %6 = load ptr, ptr @SDL_joylist, align 8
  %.not11 = icmp eq ptr %6, null
  br i1 %.not11, label %._crit_edge, label %.lr.ph

.lr.ph:                                           ; preds = %5, %.lr.ph
  %.0812 = phi ptr [ %8, %.lr.ph ], [ %6, %5 ]
  %7 = getelementptr inbounds nuw i8, ptr %.0812, i64 64
  %8 = load ptr, ptr %7, align 8
  %9 = getelementptr inbounds nuw i8, ptr %.0812, i64 80
  %10 = load ptr, ptr %9, align 8
  tail call void @SDL_free_REAL(ptr noundef %10) #18
  %11 = getelementptr inbounds nuw i8, ptr %.0812, i64 8
  %12 = load ptr, ptr %11, align 8
  tail call void @SDL_free_REAL(ptr noundef %12) #18
  %13 = getelementptr inbounds nuw i8, ptr %.0812, i64 16
  %14 = load ptr, ptr %13, align 8
  tail call void @SDL_free_REAL(ptr noundef %14) #18
  tail call void @SDL_free_REAL(ptr noundef nonnull %.0812) #18
  %.not = icmp eq ptr %8, null
  br i1 %.not, label %._crit_edge, label %.lr.ph, !llvm.loop !22

._crit_edge:                                      ; preds = %.lr.ph, %5
  %15 = load ptr, ptr @SDL_sensorlist, align 8
  %.not1013 = icmp eq ptr %15, null
  br i1 %.not1013, label %._crit_edge17, label %.lr.ph16

.lr.ph16:                                         ; preds = %._crit_edge, %.lr.ph16
  %.014 = phi ptr [ %17, %.lr.ph16 ], [ %15, %._crit_edge ]
  %16 = getelementptr inbounds nuw i8, ptr %.014, i64 24
  %17 = load ptr, ptr %16, align 8
  %18 = load ptr, ptr %.014, align 8
  tail call void @SDL_free_REAL(ptr noundef %18) #18
  tail call void @SDL_free_REAL(ptr noundef nonnull %.014) #18
  %.not10 = icmp eq ptr %17, null
  br i1 %.not10, label %._crit_edge17, label %.lr.ph16, !llvm.loop !23

._crit_edge17:                                    ; preds = %.lr.ph16, %._crit_edge
  store ptr null, ptr @SDL_joylist_tail, align 8
  store ptr null, ptr @SDL_joylist, align 8
  store ptr null, ptr @SDL_sensorlist, align 8
  store i32 0, ptr @numjoysticks, align 4
  %19 = load i32, ptr @enumeration_method, align 4
  %20 = icmp eq i32 %19, 1
  br i1 %20, label %21, label %22

21:                                               ; preds = %._crit_edge17
  tail call void @SDL_UDEV_DelCallback(ptr noundef nonnull @joystick_udev_callback) #18
  tail call void @SDL_UDEV_Quit() #18
  br label %22

22:                                               ; preds = %21, %._crit_edge17
  ret void
}